; Function Attrs: mustprogress uwtable
define void @_ZN11ComprDataIO18AdjustTotalArcSizeEP7Archive(ptr noundef nonnull align 8 captures(none) dereferenceable(266) %0, ptr noundef %1) local_unnamed_addr #0 align 2 {
  %3 = getelementptr inbounds nuw i8, ptr %1, i64 20
  %4 = load i32, ptr %3, align 4
  %.not12 = icmp eq i32 %4, 1
  br i1 %.not12, label %7, label %5

5:                                                ; preds = %2
  %6 = tail call noundef i64 @_ZN4File10FileLengthEv(ptr noundef nonnull align 8 dereferenceable(8256) %1)
  br label %7

7:                                                ; preds = %2, %5
  %8 = phi i64 [ %6, %5 ], [ 0, %2 ]
  %9 = getelementptr inbounds nuw i8, ptr %1, i64 13840
  %10 = load i64, ptr %9, align 8
  %.not = icmp eq i64 %10, 0
  br i1 %.not, label %13, label %11

11:                                               ; preds = %7
  %12 = getelementptr inbounds nuw i8, ptr %0, i64 200
  store i64 %10, ptr %12, align 8
  br label %23

13:                                               ; preds = %7
  %14 = getelementptr inbounds nuw i8, ptr %1, i64 13856
  %15 = load i64, ptr %14, align 8
  %.not11 = icmp eq i64 %15, 0
  br i1 %.not11, label %18, label %16

16:                                               ; preds = %13
  %17 = getelementptr inbounds nuw i8, ptr %0, i64 200
  store i64 %15, ptr %17, align 8
  br label %23

18:                                               ; preds = %13
  %19 = icmp sgt i64 %8, 23
  br i1 %19, label %20, label %._crit_edge

._crit_edge:                                      ; preds = %18
  %.phi.trans.insert = getelementptr inbounds nuw i8, ptr %0, i64 200
  %.pre = load i64, ptr %.phi.trans.insert, align 8
  br label %23

20:                                               ; preds = %18
  %21 = add nsw i64 %8, -23
  %22 = getelementptr inbounds nuw i8, ptr %0, i64 200
  store i64 %21, ptr %22, align 8
  br label %23

23:                                               ; preds = %._crit_edge, %16, %20, %11
  %24 = phi i64 [ %.pre, %._crit_edge ], [ %15, %16 ], [ %21, %20 ], [ %10, %11 ]
  %.neg = sub i64 %24, %8
  %25 = getelementptr inbounds nuw i8, ptr %0, i64 208
  %26 = load i64, ptr %25, align 8
  %27 = add i64 %.neg, %26
  store i64 %27, ptr %25, align 8
  ret void
}